(lp0
(dp1
S'username'
p2
S'hewei'
p3
sS'password'
p4
S'$2b$12$BiyJjXnBl5CUN3le6k0b1.C7ybgQSPJAYcRMr4hTZDe9Fc9tt9OVG'
p5
sS'id'
p6
I840624671077116451
sa(dp7
S'username'
p8
S'hello'
p9
sS'password'
p10
S'$2b$12$uSeMCa/5/Ci3fLOI.l6ctuzHoU.Sjty.dHnileJWVAZO6Zc4OT6dq'
p11
sS'id'
p12
I840651671246116861
sa.